; ModuleID = '50/1471.c'
source_filename = "50/1471.c"
target datalayout = "e-m:e-p270:32:32-p271:32:32-p272:64:64-i64:64-f80:128-n8:16:32:64-S128"
target triple = "x86_64-pc-linux-gnu"

@.str = private unnamed_addr constant [3 x i8] c"%d\00", align 1
@.str.1 = private unnamed_addr constant [4 x i8] c"%d\0A\00", align 1

; Function Attrs: noinline nounwind uwtable
define dso_local i32 @main() #0 {
  %1 = alloca i32, align 4
  %2 = alloca i32, align 4
  %3 = alloca i32, align 4
  %4 = alloca i32, align 4
  %5 = alloca [13 x i32], align 16
  %6 = alloca i32, align 4
  store i32 0, i32* %1, align 4
  %7 = call i32 (i8*, ...) @__isoc99_scanf(i8* getelementptr inbounds ([3 x i8], [3 x i8]* @.str, i64 0, i64 0), i32* %2)
  %8 = load i32, i32* %2, align 4
  store i32 %8, i32* %6, align 4
  store i32 1, i32* %3, align 4
  br label %9

9:                                                ; preds = %61, %0
  %10 = load i32, i32* %3, align 4
  %11 = icmp sle i32 %10, 12
  br i1 %11, label %12, label %64

12:                                               ; preds = %9
  %13 = load i32, i32* %3, align 4
  %14 = icmp eq i32 %13, 1
  br i1 %14, label %33, label %15

15:                                               ; preds = %12
  %16 = load i32, i32* %3, align 4
  %17 = icmp eq i32 %16, 3
  br i1 %17, label %33, label %18

18:                                               ; preds = %15
  %19 = load i32, i32* %3, align 4
  %20 = icmp eq i32 %19, 5
  br i1 %20, label %33, label %21

21:                                               ; preds = %18
  %22 = load i32, i32* %3, align 4
  %23 = icmp eq i32 %22, 7
  br i1 %23, label %33, label %24

24:                                               ; preds = %21
  %25 = load i32, i32* %3, align 4
  %26 = icmp eq i32 %25, 8
  br i1 %26, label %33, label %27

27:                                               ; preds = %24
  %28 = load i32, i32* %3, align 4
  %29 = icmp eq i32 %28, 10
  br i1 %29, label %33, label %30

30:                                               ; preds = %27
  %31 = load i32, i32* %3, align 4
  %32 = icmp eq i32 %31, 12
  br i1 %32, label %33, label %37

33:                                               ; preds = %30, %27, %24, %21, %18, %15, %12
  %34 = load i32, i32* %3, align 4
  %35 = sext i32 %34 to i64
  %36 = getelementptr inbounds [13 x i32], [13 x i32]* %5, i64 0, i64 %35
  store i32 31, i32* %36, align 4
  br label %37

37:                                               ; preds = %33, %30
  %38 = load i32, i32* %3, align 4
  %39 = icmp eq i32 %38, 4
  br i1 %39, label %49, label %40

40:                                               ; preds = %37
  %41 = load i32, i32* %3, align 4
  %42 = icmp eq i32 %41, 6
  br i1 %42, label %49, label %43

43:                                               ; preds = %40
  %44 = load i32, i32* %3, align 4
  %45 = icmp eq i32 %44, 9
  br i1 %45, label %49, label %46

46:                                               ; preds = %43
  %47 = load i32, i32* %3, align 4
  %48 = icmp eq i32 %47, 11
  br i1 %48, label %49, label %53

49:                                               ; preds = %46, %43, %40, %37
  %50 = load i32, i32* %3, align 4
  %51 = sext i32 %50 to i64
  %52 = getelementptr inbounds [13 x i32], [13 x i32]* %5, i64 0, i64 %51
  store i32 30, i32* %52, align 4
  br label %53

53:                                               ; preds = %49, %46
  %54 = load i32, i32* %3, align 4
  %55 = icmp eq i32 %54, 2
  br i1 %55, label %56, label %60

56:                                               ; preds = %53
  %57 = load i32, i32* %3, align 4
  %58 = sext i32 %57 to i64
  %59 = getelementptr inbounds [13 x i32], [13 x i32]* %5, i64 0, i64 %58
  store i32 28, i32* %59, align 4
  br label %60

60:                                               ; preds = %56, %53
  br label %61

61:                                               ; preds = %60
  %62 = load i32, i32* %3, align 4
  %63 = add nsw i32 %62, 1
  store i32 %63, i32* %3, align 4
  br label %9

64:                                               ; preds = %9
  store i32 1, i32* %3, align 4
  store i32 1, i32* %4, align 4
  br label %65

65:                                               ; preds = %105, %64
  %66 = load i32, i32* %4, align 4
  %67 = load i32, i32* %3, align 4
  %68 = sext i32 %67 to i64
  %69 = getelementptr inbounds [13 x i32], [13 x i32]* %5, i64 0, i64 %68
  %70 = load i32, i32* %69, align 4
  %71 = icmp sle i32 %66, %70
  br i1 %71, label %72, label %106

72:                                               ; preds = %65
  %73 = load i32, i32* %3, align 4
  %74 = icmp sgt i32 %73, 12
  br i1 %74, label %75, label %76

75:                                               ; preds = %72
  br label %106

76:                                               ; preds = %72
  %77 = load i32, i32* %4, align 4
  %78 = load i32, i32* %3, align 4
  %79 = sext i32 %78 to i64
  %80 = getelementptr inbounds [13 x i32], [13 x i32]* %5, i64 0, i64 %79
  %81 = load i32, i32* %80, align 4
  %82 = icmp eq i32 %77, %81
  br i1 %82, label %83, label %86

83:                                               ; preds = %76
  store i32 1, i32* %4, align 4
  %84 = load i32, i32* %3, align 4
  %85 = add nsw i32 %84, 1
  store i32 %85, i32* %3, align 4
  br label %89

86:                                               ; preds = %76
  %87 = load i32, i32* %4, align 4
  %88 = add nsw i32 %87, 1
  store i32 %88, i32* %4, align 4
  br label %89

89:                                               ; preds = %86, %83
  %90 = load i32, i32* %6, align 4
  %91 = icmp eq i32 %90, 7
  br i1 %91, label %92, label %93

92:                                               ; preds = %89
  store i32 1, i32* %6, align 4
  br label %96

93:                                               ; preds = %89
  %94 = load i32, i32* %6, align 4
  %95 = add nsw i32 %94, 1
  store i32 %95, i32* %6, align 4
  br label %96

96:                                               ; preds = %93, %92
  %97 = load i32, i32* %4, align 4
  %98 = icmp eq i32 %97, 13
  br i1 %98, label %99, label %105

99:                                               ; preds = %96
  %100 = load i32, i32* %6, align 4
  %101 = icmp eq i32 %100, 5
  br i1 %101, label %102, label %105

102:                                              ; preds = %99
  %103 = load i32, i32* %3, align 4
  %104 = call i32 (i8*, ...) @printf(i8* getelementptr inbounds ([4 x i8], [4 x i8]* @.str.1, i64 0, i64 0), i32 %103)
  br label %105

105:                                              ; preds = %102, %99, %96
  br label %65

106:                                              ; preds = %75, %65
  ret i32 0
}

declare dso_local i32 @__isoc99_scanf(i8*, ...) #1

declare dso_local i32 @printf(i8*, ...) #1


!llvm.module.flags = !{!0}
!llvm.ident = !{!1}

!0 = !{i32 1, !"wchar_size", i32 4}
!1 = !{!"clang version 10.0.0-4ubuntu1 "}
